target datalayout = "e-m:e-p270:32:32-p271:32:32-p272:64:64-i64:64-i128:128-f80:128-n8:16:32:64-S128"
target triple = "x86_64-pc-linux-gnu"

%struct.If_Par_t_ = type { i32, i32, i32, i32, i32, i32, float, float, i32, i32, i32, i32, i32, i32, i32, i32, i32, i32, i32, i32, i32, i32, i32, i32, i32, i32, i32, i32, i32, i32, i32, i32, i32, i32, i32, i32, i32, i32, i32, i32, i32, i32, i32, i32, i32, i32, i32, i32, i32, ptr, float, i32, i32, i32, i32, i32, i32, i32, i32, i32, i32, i32, i32, i32, i32, float, float, float, ptr, ptr, ptr, ptr, ptr, ptr, ptr, ptr, ptr }
%struct.Vec_Int_t_ = type { i32, i32, ptr }

@.str = private unnamed_addr constant [35 x i8] c"Performing renoding with choices.\0A\00", align 1
@nDsdCounter = internal global i32 0, align 4
@s_pDd = internal global ptr null, align 8
@s_pReo = internal global ptr null, align 8
@s_vMemory = internal global ptr null, align 8
@s_vMemory2 = internal global ptr null, align 8

; Function Attrs: nounwind uwtable
define internal void @Vec_IntFree(ptr noundef %0) #0 {
  %2 = alloca ptr, align 8
  store ptr %0, ptr %2, align 8
  %3 = load ptr, ptr %2, align 8
  %4 = getelementptr inbounds %struct.Vec_Int_t_, ptr %3, i32 0, i32 2
  %5 = load ptr, ptr %4, align 8
  %6 = icmp ne ptr %5, null
  br i1 %6, label %7, label %13

7:                                                ; preds = %1
  %8 = load ptr, ptr %2, align 8
  %9 = getelementptr inbounds %struct.Vec_Int_t_, ptr %8, i32 0, i32 2
  %10 = load ptr, ptr %9, align 8
  call void @free(ptr noundef %10) #7
  %11 = load ptr, ptr %2, align 8
  %12 = getelementptr inbounds %struct.Vec_Int_t_, ptr %11, i32 0, i32 2
  store ptr null, ptr %12, align 8
  br label %14

13:                                               ; preds = %1
  br label %14

14:                                               ; preds = %13, %7
  %15 = load ptr, ptr %2, align 8
  %16 = icmp ne ptr %15, null
  br i1 %16, label %17, label %19

17:                                               ; preds = %14
  %18 = load ptr, ptr %2, align 8
  call void @free(ptr noundef %18) #7
  store ptr null, ptr %2, align 8
  br label %20

19:                                               ; preds = %14
  br label %20

20:                                               ; preds = %19, %17
  ret void
}

; Function Attrs: nounwind uwtable
define internal ptr @Vec_IntAlloc(i32 noundef %0) #0 {
  %2 = alloca i32, align 4
  %3 = alloca ptr, align 8
  store i32 %0, ptr %2, align 4
  %4 = call noalias ptr @malloc(i64 noundef 16) #6
  store ptr %4, ptr %3, align 8
  %5 = load i32, ptr %2, align 4
  %6 = icmp sgt i32 %5, 0
  br i1 %6, label %7, label %11

7:                                                ; preds = %1
  %8 = load i32, ptr %2, align 4
  %9 = icmp slt i32 %8, 16
  br i1 %9, label %10, label %11

10:                                               ; preds = %7
  store i32 16, ptr %2, align 4
  br label %11

11:                                               ; preds = %10, %7, %1
  %12 = load ptr, ptr %3, align 8
  %13 = getelementptr inbounds %struct.Vec_Int_t_, ptr %12, i32 0, i32 1
  store i32 0, ptr %13, align 4
  %14 = load i32, ptr %2, align 4
  %15 = load ptr, ptr %3, align 8
  %16 = getelementptr inbounds %struct.Vec_Int_t_, ptr %15, i32 0, i32 0
  store i32 %14, ptr %16, align 8
  %17 = load ptr, ptr %3, align 8
  %18 = getelementptr inbounds %struct.Vec_Int_t_, ptr %17, i32 0, i32 0
  %19 = load i32, ptr %18, align 8
  %20 = icmp ne i32 %19, 0
  br i1 %20, label %21, label %28

21:                                               ; preds = %11
  %22 = load ptr, ptr %3, align 8
  %23 = getelementptr inbounds %struct.Vec_Int_t_, ptr %22, i32 0, i32 0
  %24 = load i32, ptr %23, align 8
  %25 = sext i32 %24 to i64
  %26 = mul i64 4, %25
  %27 = call noalias ptr @malloc(i64 noundef %26) #6
  br label %29

28:                                               ; preds = %11
  br label %29

29:                                               ; preds = %28, %21
  %30 = phi ptr [ %27, %21 ], [ null, %28 ]
  %31 = load ptr, ptr %3, align 8
  %32 = getelementptr inbounds %struct.Vec_Int_t_, ptr %31, i32 0, i32 2
  store ptr %30, ptr %32, align 8
  %33 = load ptr, ptr %3, align 8
  ret ptr %33
}

; Function Attrs: nounwind uwtable
define ptr @Abc_NtkRenode(ptr noundef %0, i32 noundef %1, i32 noundef %2, i32 noundef %3, i32 noundef %4, i32 noundef %5, i32 noundef %6, i32 noundef %7, i32 noundef %8, i32 noundef %9, i32 noundef %10) #0 {
  %12 = alloca ptr, align 8
  %13 = alloca i32, align 4
  %14 = alloca i32, align 4
  %15 = alloca i32, align 4
  %16 = alloca i32, align 4
  %17 = alloca i32, align 4
  %18 = alloca i32, align 4
  %19 = alloca i32, align 4
  %20 = alloca i32, align 4
  %21 = alloca i32, align 4
  %22 = alloca i32, align 4
  %23 = alloca %struct.If_Par_t_, align 8
  %24 = alloca ptr, align 8
  %25 = alloca ptr, align 8
  store ptr %0, ptr %12, align 8
  store i32 %1, ptr %13, align 4
  store i32 %2, ptr %14, align 4
  store i32 %3, ptr %15, align 4
  store i32 %4, ptr %16, align 4
  store i32 %5, ptr %17, align 4
  store i32 %6, ptr %18, align 4
  store i32 %7, ptr %19, align 4
  store i32 %8, ptr %20, align 4
  store i32 %9, ptr %21, align 4
  store i32 %10, ptr %22, align 4
  store ptr %23, ptr %24, align 8
  %26 = load ptr, ptr %12, align 8
  %27 = call i32 @Abc_NtkGetChoiceNum(ptr noundef %26)
  %28 = icmp ne i32 %27, 0
  br i1 %28, label %29, label %31

29:                                               ; preds = %11
  %30 = call i32 (ptr, ...) @printf(ptr noundef @.str)
  br label %31

31:                                               ; preds = %29, %11
  store i32 0, ptr @nDsdCounter, align 4
  %32 = load ptr, ptr %24, align 8
  call void @llvm.memset.p0.i64(ptr align 8 %32, i8 0, i64 352, i1 false)
  %33 = load i32, ptr %13, align 4
  %34 = load ptr, ptr %24, align 8
  %35 = getelementptr inbounds %struct.If_Par_t_, ptr %34, i32 0, i32 0
  store i32 %33, ptr %35, align 8
  %36 = load i32, ptr %14, align 4
  %37 = load ptr, ptr %24, align 8
  %38 = getelementptr inbounds %struct.If_Par_t_, ptr %37, i32 0, i32 1
  store i32 %36, ptr %38, align 4
  %39 = load i32, ptr %15, align 4
  %40 = load ptr, ptr %24, align 8
  %41 = getelementptr inbounds %struct.If_Par_t_, ptr %40, i32 0, i32 2
  store i32 %39, ptr %41, align 8
  %42 = load i32, ptr %16, align 4
  %43 = load ptr, ptr %24, align 8
  %44 = getelementptr inbounds %struct.If_Par_t_, ptr %43, i32 0, i32 3
  store i32 %42, ptr %44, align 4
  %45 = load ptr, ptr %24, align 8
  %46 = getelementptr inbounds %struct.If_Par_t_, ptr %45, i32 0, i32 6
  store float -1.000000e+00, ptr %46, align 8
  %47 = load ptr, ptr %24, align 8
  %48 = getelementptr inbounds %struct.If_Par_t_, ptr %47, i32 0, i32 7
  store float 0x3F747AE140000000, ptr %48, align 4
  %49 = load ptr, ptr %24, align 8
  %50 = getelementptr inbounds %struct.If_Par_t_, ptr %49, i32 0, i32 13
  store i32 1, ptr %50, align 4
  %51 = load i32, ptr %17, align 4
  %52 = load ptr, ptr %24, align 8
  %53 = getelementptr inbounds %struct.If_Par_t_, ptr %52, i32 0, i32 14
  store i32 %51, ptr %53, align 8
  %54 = load ptr, ptr %24, align 8
  %55 = getelementptr inbounds %struct.If_Par_t_, ptr %54, i32 0, i32 15
  store i32 0, ptr %55, align 4
  %56 = load ptr, ptr %24, align 8
  %57 = getelementptr inbounds %struct.If_Par_t_, ptr %56, i32 0, i32 16
  store i32 0, ptr %57, align 8
  %58 = load ptr, ptr %24, align 8
  %59 = getelementptr inbounds %struct.If_Par_t_, ptr %58, i32 0, i32 17
  store i32 0, ptr %59, align 4
  %60 = load i32, ptr %22, align 4
  %61 = load ptr, ptr %24, align 8
  %62 = getelementptr inbounds %struct.If_Par_t_, ptr %61, i32 0, i32 47
  store i32 %60, ptr %62, align 4
  %63 = load ptr, ptr %24, align 8
  %64 = getelementptr inbounds %struct.If_Par_t_, ptr %63, i32 0, i32 53
  store i32 1, ptr %64, align 4
  %65 = load ptr, ptr %24, align 8
  %66 = getelementptr inbounds %struct.If_Par_t_, ptr %65, i32 0, i32 54
  store i32 1, ptr %66, align 8
  %67 = load ptr, ptr %24, align 8
  %68 = getelementptr inbounds %struct.If_Par_t_, ptr %67, i32 0, i32 59
  store i32 0, ptr %68, align 4
  %69 = load ptr, ptr %24, align 8
  %70 = getelementptr inbounds %struct.If_Par_t_, ptr %69, i32 0, i32 60
  store i32 0, ptr %70, align 8
  %71 = load ptr, ptr %24, align 8
  %72 = getelementptr inbounds %struct.If_Par_t_, ptr %71, i32 0, i32 68
  store ptr null, ptr %72, align 8
  %73 = load ptr, ptr %24, align 8
  %74 = getelementptr inbounds %struct.If_Par_t_, ptr %73, i32 0, i32 69
  store ptr null, ptr %74, align 8
  %75 = load ptr, ptr %24, align 8
  %76 = getelementptr inbounds %struct.If_Par_t_, ptr %75, i32 0, i32 69
  store ptr null, ptr %76, align 8
  %77 = load i32, ptr %18, align 4
  %78 = load ptr, ptr %24, align 8
  %79 = getelementptr inbounds %struct.If_Par_t_, ptr %78, i32 0, i32 55
  store i32 %77, ptr %79, align 4
  %80 = load i32, ptr %19, align 4
  %81 = load ptr, ptr %24, align 8
  %82 = getelementptr inbounds %struct.If_Par_t_, ptr %81, i32 0, i32 56
  store i32 %80, ptr %82, align 8
  %83 = load i32, ptr %20, align 4
  %84 = load ptr, ptr %24, align 8
  %85 = getelementptr inbounds %struct.If_Par_t_, ptr %84, i32 0, i32 57
  store i32 %83, ptr %85, align 4
  %86 = load i32, ptr %21, align 4
  %87 = load ptr, ptr %24, align 8
  %88 = getelementptr inbounds %struct.If_Par_t_, ptr %87, i32 0, i32 58
  store i32 %86, ptr %88, align 8
  %89 = load i32, ptr %18, align 4
  %90 = icmp ne i32 %89, 0
  br i1 %90, label %91, label %94

91:                                               ; preds = %31
  %92 = load ptr, ptr %24, align 8
  %93 = getelementptr inbounds %struct.If_Par_t_, ptr %92, i32 0, i32 71
  store ptr @Abc_NtkRenodeEvalBdd, ptr %93, align 8
  br label %120

94:                                               ; preds = %31
  %95 = load i32, ptr %19, align 4
  %96 = icmp ne i32 %95, 0
  br i1 %96, label %97, label %100

97:                                               ; preds = %94
  %98 = load ptr, ptr %24, align 8
  %99 = getelementptr inbounds %struct.If_Par_t_, ptr %98, i32 0, i32 71
  store ptr @Abc_NtkRenodeEvalSop, ptr %99, align 8
  br label %119

100:                                              ; preds = %94
  %101 = load i32, ptr %20, align 4
  %102 = icmp ne i32 %101, 0
  br i1 %102, label %103, label %108

103:                                              ; preds = %100
  %104 = load ptr, ptr %24, align 8
  %105 = getelementptr inbounds %struct.If_Par_t_, ptr %104, i32 0, i32 14
  store i32 1, ptr %105, align 8
  %106 = load ptr, ptr %24, align 8
  %107 = getelementptr inbounds %struct.If_Par_t_, ptr %106, i32 0, i32 71
  store ptr @Abc_NtkRenodeEvalCnf, ptr %107, align 8
  br label %118

108:                                              ; preds = %100
  %109 = load i32, ptr %21, align 4
  %110 = icmp ne i32 %109, 0
  br i1 %110, label %111, label %114

111:                                              ; preds = %108
  %112 = load ptr, ptr %24, align 8
  %113 = getelementptr inbounds %struct.If_Par_t_, ptr %112, i32 0, i32 71
  store ptr @Abc_NtkRenodeEvalMv, ptr %113, align 8
  br label %117

114:                                              ; preds = %108
  %115 = load ptr, ptr %24, align 8
  %116 = getelementptr inbounds %struct.If_Par_t_, ptr %115, i32 0, i32 71
  store ptr @Abc_NtkRenodeEvalAig, ptr %116, align 8
  br label %117

117:                                              ; preds = %114, %111
  br label %118

118:                                              ; preds = %117, %103
  br label %119

119:                                              ; preds = %118, %97
  br label %120

120:                                              ; preds = %119, %91
  %121 = load i32, ptr %18, align 4
  %122 = icmp ne i32 %121, 0
  br i1 %122, label %123, label %131

123:                                              ; preds = %120
  %124 = load i32, ptr %13, align 4
  %125 = call ptr @Cudd_Init(i32 noundef %124, i32 noundef 0, i32 noundef 256, i32 noundef 262144, i64 noundef 0)
  store ptr %125, ptr @s_pDd, align 8
  %126 = load i32, ptr %13, align 4
  %127 = call ptr @Extra_ReorderInit(i32 noundef %126, i32 noundef 100)
  store ptr %127, ptr @s_pReo, align 8
  %128 = load ptr, ptr @s_pReo, align 8
  %129 = load ptr, ptr %24, align 8
  %130 = getelementptr inbounds %struct.If_Par_t_, ptr %129, i32 0, i32 76
  store ptr %128, ptr %130, align 8
  br label %134

131:                                              ; preds = %120
  %132 = call ptr @Vec_IntAlloc(i32 noundef 65536)
  store ptr %132, ptr @s_vMemory, align 8
  %133 = call ptr @Vec_IntAlloc(i32 noundef 65536)
  store ptr %133, ptr @s_vMemory2, align 8
  br label %134

134:                                              ; preds = %131, %123
  %135 = load ptr, ptr %12, align 8
  %136 = load ptr, ptr %24, align 8
  %137 = call ptr @Abc_NtkIf(ptr noundef %135, ptr noundef %136)
  store ptr %137, ptr %25, align 8
  %138 = load i32, ptr %18, align 4
  %139 = icmp ne i32 %138, 0
  br i1 %139, label %140, label %143

140:                                              ; preds = %134
  %141 = load ptr, ptr @s_pDd, align 8
  call void @Extra_StopManager(ptr noundef %141)
  %142 = load ptr, ptr @s_pReo, align 8
  call void @Extra_ReorderQuit(ptr noundef %142)
  store ptr null, ptr @s_pReo, align 8
  store ptr null, ptr @s_pDd, align 8
  br label %146

143:                                              ; preds = %134
  %144 = load ptr, ptr @s_vMemory, align 8
  call void @Vec_IntFree(ptr noundef %144)
  %145 = load ptr, ptr @s_vMemory2, align 8
  call void @Vec_IntFree(ptr noundef %145)
  store ptr null, ptr @s_vMemory, align 8
  store ptr null, ptr @s_vMemory2, align 8
  br label %146

146:                                              ; preds = %143, %140
  %147 = load ptr, ptr %25, align 8
  ret ptr %147
}